; Function Attrs: mustprogress nofree norecurse nosync nounwind willreturn memory(read, inaccessiblemem: none) uwtable
define hidden noundef zeroext i1 @_ZNK12seq_rewriter15are_complementsEP4exprS1_(ptr noundef nonnull readonly align 8 captures(none) dereferenceable(497) %0, ptr noundef readonly captures(address) %1, ptr noundef readonly captures(address) %2) local_unnamed_addr #10 align 2 {
  %4 = getelementptr inbounds nuw i8, ptr %0, i64 72
  %5 = load i32, ptr %4, align 8, !tbaa !87
  %6 = getelementptr inbounds nuw i8, ptr %1, i64 4
  %7 = load i32, ptr %6, align 4
  %8 = and i32 %7, 65535
  %9 = icmp eq i32 %8, 0
  br i1 %9, label %10, label %_ZNK8seq_util3rex13is_complementEPK4exprRPS1_.exit.thread

10:                                               ; preds = %3
  %11 = getelementptr inbounds nuw i8, ptr %1, i64 16
  %12 = load ptr, ptr %11, align 8, !tbaa !202
  %13 = getelementptr inbounds nuw i8, ptr %12, i64 24
  %14 = load ptr, ptr %13, align 8, !tbaa !207
  %.not.i.i.i.i.i = icmp eq ptr %14, null
  br i1 %.not.i.i.i.i.i, label %_ZNK8seq_util3rex13is_complementEPK4exprRPS1_.exit.thread, label %_ZNK8seq_util3rex13is_complementEPK4expr.exit.i

_ZNK8seq_util3rex13is_complementEPK4expr.exit.i:  ; preds = %10
  %15 = load i32, ptr %14, align 8, !tbaa !210
  %16 = icmp eq i32 %15, %5
  %17 = getelementptr inbounds nuw i8, ptr %14, i64 4
  %18 = load i32, ptr %17, align 4
  %19 = icmp eq i32 %18, 34
  %20 = select i1 %16, i1 %19, i1 false
  br i1 %20, label %21, label %_ZNK8seq_util3rex13is_complementEPK4exprRPS1_.exit.thread

21:                                               ; preds = %_ZNK8seq_util3rex13is_complementEPK4expr.exit.i
  %22 = getelementptr inbounds nuw i8, ptr %1, i64 24
  %23 = load i32, ptr %22, align 8, !tbaa !214
  %24 = icmp eq i32 %23, 1
  br i1 %24, label %_ZNK8seq_util3rex13is_complementEPK4exprRPS1_.exit, label %_ZNK8seq_util3rex13is_complementEPK4exprRPS1_.exit.thread

_ZNK8seq_util3rex13is_complementEPK4exprRPS1_.exit: ; preds = %21
  %25 = getelementptr inbounds nuw i8, ptr %1, i64 32
  %26 = load ptr, ptr %25, align 8, !tbaa !3
  %27 = icmp eq ptr %26, %2
  br i1 %27, label %51, label %_ZNK8seq_util3rex13is_complementEPK4exprRPS1_.exit.thread

_ZNK8seq_util3rex13is_complementEPK4exprRPS1_.exit.thread: ; preds = %10, %3, %_ZNK8seq_util3rex13is_complementEPK4expr.exit.i, %21, %_ZNK8seq_util3rex13is_complementEPK4exprRPS1_.exit
  %.01418 = phi ptr [ %26, %_ZNK8seq_util3rex13is_complementEPK4exprRPS1_.exit ], [ null, %21 ], [ null, %_ZNK8seq_util3rex13is_complementEPK4expr.exit.i ], [ null, %3 ], [ null, %10 ]
  %28 = getelementptr inbounds nuw i8, ptr %2, i64 4
  %29 = load i32, ptr %28, align 4
  %30 = and i32 %29, 65535
  %31 = icmp eq i32 %30, 0
  br i1 %31, label %32, label %_ZNK8seq_util3rex13is_complementEPK4exprRPS1_.exit12

32:                                               ; preds = %_ZNK8seq_util3rex13is_complementEPK4exprRPS1_.exit.thread
  %33 = getelementptr inbounds nuw i8, ptr %2, i64 16
  %34 = load ptr, ptr %33, align 8, !tbaa !202
  %35 = getelementptr inbounds nuw i8, ptr %34, i64 24
  %36 = load ptr, ptr %35, align 8, !tbaa !207
  %.not.i.i.i.i.i10 = icmp eq ptr %36, null
  br i1 %.not.i.i.i.i.i10, label %_ZNK8seq_util3rex13is_complementEPK4exprRPS1_.exit12, label %_ZNK8seq_util3rex13is_complementEPK4expr.exit.i11

_ZNK8seq_util3rex13is_complementEPK4expr.exit.i11: ; preds = %32
  %37 = load i32, ptr %36, align 8, !tbaa !210
  %38 = icmp eq i32 %37, %5
  %39 = getelementptr inbounds nuw i8, ptr %36, i64 4
  %40 = load i32, ptr %39, align 4
  %41 = icmp eq i32 %40, 34
  %42 = select i1 %38, i1 %41, i1 false
  br i1 %42, label %43, label %_ZNK8seq_util3rex13is_complementEPK4exprRPS1_.exit12

43:                                               ; preds = %_ZNK8seq_util3rex13is_complementEPK4expr.exit.i11
  %44 = getelementptr inbounds nuw i8, ptr %2, i64 24
  %45 = load i32, ptr %44, align 8, !tbaa !214
  %46 = icmp eq i32 %45, 1
  br i1 %46, label %47, label %_ZNK8seq_util3rex13is_complementEPK4exprRPS1_.exit12

47:                                               ; preds = %43
  %48 = getelementptr inbounds nuw i8, ptr %2, i64 32
  %49 = load ptr, ptr %48, align 8, !tbaa !3
  br label %_ZNK8seq_util3rex13is_complementEPK4exprRPS1_.exit12

_ZNK8seq_util3rex13is_complementEPK4exprRPS1_.exit12: ; preds = %_ZNK8seq_util3rex13is_complementEPK4exprRPS1_.exit.thread, %32, %_ZNK8seq_util3rex13is_complementEPK4expr.exit.i11, %43, %47
  %.1 = phi ptr [ %.01418, %32 ], [ %49, %47 ], [ %.01418, %43 ], [ %.01418, %_ZNK8seq_util3rex13is_complementEPK4expr.exit.i11 ], [ %.01418, %_ZNK8seq_util3rex13is_complementEPK4exprRPS1_.exit.thread ]
  %.0.i9 = phi i1 [ false, %32 ], [ true, %47 ], [ false, %43 ], [ false, %_ZNK8seq_util3rex13is_complementEPK4expr.exit.i11 ], [ false, %_ZNK8seq_util3rex13is_complementEPK4exprRPS1_.exit.thread ]
  %50 = icmp eq ptr %.1, %1
  %or.cond8 = select i1 %.0.i9, i1 %50, i1 false
  br label %51

51:                                               ; preds = %_ZNK8seq_util3rex13is_complementEPK4exprRPS1_.exit12, %_ZNK8seq_util3rex13is_complementEPK4exprRPS1_.exit
  %.0 = phi i1 [ true, %_ZNK8seq_util3rex13is_complementEPK4exprRPS1_.exit ], [ %or.cond8, %_ZNK8seq_util3rex13is_complementEPK4exprRPS1_.exit12 ]
  ret i1 %.0
}